target datalayout = "e-m:e-p270:32:32-p271:32:32-p272:64:64-i64:64-i128:128-f80:128-n8:16:32:64-S128"
target triple = "x86_64-pc-linux-gnu"

%class.QList.0 = type { %struct.QArrayDataPointer.3 }
%struct.QArrayDataPointer.3 = type { ptr, ptr, i64 }
%class.InterfaceFrame = type { %class.QFrame, ptr, %class.InterfaceSortFilterModel, %class.InterfaceTreeModel, %class.InfoProxyModel, %class.QMap.10 }
%class.QFrame = type { %class.QWidget }
%class.QWidget = type { %class.QObject, %class.QPaintDevice.base, ptr }
%class.QObject = type { ptr, %class.QScopedPointer }
%class.QScopedPointer = type { ptr }
%class.QPaintDevice.base = type <{ ptr, i16 }>
%class.InterfaceSortFilterModel = type { %class.QSortFilterProxyModel, i8, i8, i8, i8, i8, %class.QList, %class.QList.0 }
%class.QSortFilterProxyModel = type { %class.QAbstractProxyModel }
%class.QAbstractProxyModel = type { %class.QAbstractItemModel }
%class.QAbstractItemModel = type { %class.QObject }
%class.QList = type { %struct.QArrayDataPointer }
%struct.QArrayDataPointer = type { ptr, ptr, i64 }
%class.InterfaceTreeModel = type { %class.QAbstractTableModel, %class.QMap, %class.QMap.4 }
%class.QAbstractTableModel = type { %class.QAbstractItemModel }
%class.QMap = type { %"class.QtPrivate::QExplicitlySharedDataPointerV2" }
%"class.QtPrivate::QExplicitlySharedDataPointerV2" = type { ptr }
%class.QMap.4 = type { %"class.QtPrivate::QExplicitlySharedDataPointerV2.5" }
%"class.QtPrivate::QExplicitlySharedDataPointerV2.5" = type { ptr }
%class.InfoProxyModel = type { %class.QIdentityProxyModel, i32, %class.QList.6 }
%class.QIdentityProxyModel = type { %class.QAbstractProxyModel }
%class.QList.6 = type { %struct.QArrayDataPointer.9 }
%struct.QArrayDataPointer.9 = type { ptr, ptr, i64 }
%class.QMap.10 = type { %"class.QtPrivate::QExplicitlySharedDataPointerV2.11" }
%"class.QtPrivate::QExplicitlySharedDataPointerV2.11" = type { ptr }
%class.QVariant = type { %"struct.QVariant::Private" }
%"struct.QVariant::Private" = type { %union.anon, i64 }
%union.anon = type { ptr, [16 x i8] }
%class.QMetaType = type { ptr }

@.str.13 = private unnamed_addr constant [7 x i8] c"ifType\00", align 1

; Function Attrs: mustprogress nounwind null_pointer_is_valid sspstrong uwtable
define linkonce_odr void @_ZN9QMetaTypeC2EPKN9QtPrivate18QMetaTypeInterfaceE(ptr noundef align 8 dereferenceable_or_null(8) %0, ptr noundef %1) unnamed_addr #1 comdat align 2 {
  %3 = alloca ptr, align 8
  %4 = alloca ptr, align 8
  store ptr %0, ptr %3, align 8
  store ptr %1, ptr %4, align 8
  %5 = load ptr, ptr %3, align 8
  %6 = getelementptr inbounds nuw %class.QMetaType, ptr %5, i32 0, i32 0
  %7 = load ptr, ptr %4, align 8
  store ptr %7, ptr %6, align 8
  ret void
}

; Function Attrs: inlinehint mustprogress null_pointer_is_valid sspstrong uwtable
define linkonce_odr ptr @_ZNK8QVariant7Private4typeEv(ptr noundef align 8 dereferenceable_or_null(32) %0) #9 comdat align 2 {
  %2 = alloca %class.QMetaType, align 8
  %3 = alloca ptr, align 8
  store ptr %0, ptr %3, align 8
  %4 = load ptr, ptr %3, align 8
  %5 = getelementptr inbounds nuw %"struct.QVariant::Private", ptr %4, i32 0, i32 1
  %6 = load i64, ptr %5, align 8
  %7 = lshr i64 %6, 2
  %8 = shl i64 %7, 2
  %9 = inttoptr i64 %8 to ptr
  call void @_ZN9QMetaTypeC2EPKN9QtPrivate18QMetaTypeInterfaceE(ptr noundef align 8 dereferenceable_or_null(8) %2, ptr noundef %9)
  %10 = getelementptr inbounds nuw %class.QMetaType, ptr %2, i32 0, i32 0
  %11 = load ptr, ptr %10, align 8
  ret ptr %11
}

; Function Attrs: inlinehint mustprogress null_pointer_is_valid sspstrong uwtable
define linkonce_odr noundef zeroext i1 @_ZNK8QVariant7isValidEv(ptr noundef align 8 dereferenceable_or_null(32) %0) #9 comdat align 2 {
  %2 = alloca ptr, align 8
  %3 = alloca %class.QMetaType, align 8
  store ptr %0, ptr %2, align 8
  %4 = load ptr, ptr %2, align 8
  call void @llvm.lifetime.start.p0(i64 8, ptr %3) #2
  %5 = getelementptr inbounds nuw %class.QVariant, ptr %4, i32 0, i32 0
  %6 = call ptr @_ZNK8QVariant7Private4typeEv(ptr noundef align 8 dereferenceable_or_null(32) %5)
  %7 = getelementptr inbounds nuw %class.QMetaType, ptr %3, i32 0, i32 0
  store ptr %6, ptr %7, align 8
  %8 = call noundef zeroext i1 @_ZNK9QMetaType7isValidEv(ptr noundef align 8 dereferenceable_or_null(8) %3)
  call void @llvm.lifetime.end.p0(i64 8, ptr %3) #2
  ret i1 %8
}

; Function Attrs: mustprogress null_pointer_is_valid sspstrong uwtable
define void @_ZN14InterfaceFrame20actionButton_toggledEb(ptr noundef align 8 dereferenceable_or_null(208) %0, i1 noundef zeroext %1) #3 align 2 personality ptr @__gxx_personality_v0 {
  %3 = alloca ptr, align 8
  %4 = alloca i8, align 1
  %5 = alloca %class.QVariant, align 8
  %6 = alloca ptr, align 8
  %7 = alloca i32, align 4
  store ptr %0, ptr %3, align 8
  %8 = zext i1 %1 to i8
  store i8 %8, ptr %4, align 1
  %9 = load ptr, ptr %3, align 8
  call void @llvm.lifetime.start.p0(i64 32, ptr %5) #2
  %10 = call noundef ptr @_ZNK7QObject6senderEv(ptr noundef align 8 dereferenceable_or_null(16) %9)
  call void @_ZNK7QObject8propertyEPKc(ptr dead_on_unwind writable sret(%class.QVariant) align 8 %5, ptr noundef align 8 dereferenceable_or_null(16) %10, ptr noundef @.str.13)
  %11 = invoke noundef zeroext i1 @_ZNK8QVariant7isValidEv(ptr noundef align 8 dereferenceable_or_null(32) %5)
          to label %12 unwind label %20

12:                                               ; preds = %2
  br i1 %11, label %13, label %24

13:                                               ; preds = %12
  %14 = getelementptr inbounds nuw %class.InterfaceFrame, ptr %9, i32 0, i32 2
  %15 = invoke noundef i32 @_ZNK8QVariant5toIntEPb(ptr noundef align 8 dereferenceable_or_null(32) %5, ptr noundef null)
          to label %16 unwind label %20

16:                                               ; preds = %13
  %17 = load i8, ptr %4, align 1, !range !6, !noundef !7
  %18 = trunc i8 %17 to i1
  invoke void @_ZN24InterfaceSortFilterModel23setInterfaceTypeVisibleEib(ptr noundef align 8 dereferenceable_or_null(72) %14, i32 noundef %15, i1 noundef zeroext %18)
          to label %19 unwind label %20

19:                                               ; preds = %16
  br label %24

20:                                               ; preds = %24, %16, %13, %2
  %21 = landingpad { ptr, i32 }
          cleanup
  %22 = extractvalue { ptr, i32 } %21, 0
  store ptr %22, ptr %6, align 8
  %23 = extractvalue { ptr, i32 } %21, 1
  store i32 %23, ptr %7, align 4
  call void @_ZN8QVariantD1Ev(ptr noundef align 8 dereferenceable_or_null(32) %5) #2
  call void @llvm.lifetime.end.p0(i64 32, ptr %5) #2
  br label %26

24:                                               ; preds = %19, %12
  invoke void @_ZN14InterfaceFrame25resetInterfaceTreeDisplayEv(ptr noundef align 8 dereferenceable_or_null(208) %9)
          to label %25 unwind label %20

25:                                               ; preds = %24
  call void @_ZN8QVariantD1Ev(ptr noundef align 8 dereferenceable_or_null(32) %5) #2
  call void @llvm.lifetime.end.p0(i64 32, ptr %5) #2
  ret void

26:                                               ; preds = %20
  %27 = load ptr, ptr %6, align 8
  %28 = load i32, ptr %7, align 4
  %29 = insertvalue { ptr, i32 } poison, ptr %27, 0
  %30 = insertvalue { ptr, i32 } %29, i32 %28, 1
  resume { ptr, i32 } %30
}