; Function Attrs: mustprogress null_pointer_is_valid sspstrong uwtable
define void @_ZN14InterfaceFrame20actionButton_toggledEb(ptr noundef align 8 dereferenceable_or_null(208) %0, i1 noundef zeroext %1) local_unnamed_addr #2 align 2 personality ptr @__gxx_personality_v0 {
  %3 = alloca %class.QMetaType, align 8
  %4 = alloca %class.QVariant, align 8
  call void @llvm.lifetime.start.p0(i64 32, ptr nonnull %4) #28
  %5 = tail call noundef ptr @_ZNK7QObject6senderEv(ptr noundef align 8 dereferenceable_or_null(16) %0)
  call void @_ZNK7QObject8propertyEPKc(ptr dead_on_unwind nonnull writable sret(%class.QVariant) align 8 %4, ptr noundef align 8 dereferenceable_or_null(16) %5, ptr noundef nonnull @.str.13)
  call void @llvm.lifetime.start.p0(i64 8, ptr nonnull %3) #28
  %6 = getelementptr inbounds nuw i8, ptr %4, i64 24
  %7 = load i64, ptr %6, align 8
  %8 = and i64 %7, -4
  %9 = inttoptr i64 %8 to ptr
  store ptr %9, ptr %3, align 8
  %10 = invoke noundef zeroext i1 @_ZNK9QMetaType7isValidEv(ptr noundef nonnull align 8 dereferenceable_or_null(8) %3)
          to label %11 unwind label %16

11:                                               ; preds = %2
  call void @llvm.lifetime.end.p0(i64 8, ptr nonnull %3) #28
  br i1 %10, label %12, label %18

12:                                               ; preds = %11
  %13 = invoke noundef i32 @_ZNK8QVariant5toIntEPb(ptr noundef nonnull align 8 dereferenceable_or_null(32) %4, ptr noundef null)
          to label %14 unwind label %16

14:                                               ; preds = %12
  %15 = getelementptr inbounds nuw i8, ptr %0, i64 48
  invoke void @_ZN24InterfaceSortFilterModel23setInterfaceTypeVisibleEib(ptr noundef nonnull align 8 dereferenceable_or_null(72) %15, i32 noundef %13, i1 noundef zeroext %1)
          to label %18 unwind label %16

16:                                               ; preds = %2, %18, %14, %12
  %17 = landingpad { ptr, i32 }
          cleanup
  call void @_ZN8QVariantD1Ev(ptr noundef nonnull align 8 dereferenceable_or_null(32) %4) #28
  call void @llvm.lifetime.end.p0(i64 32, ptr nonnull %4) #28
  resume { ptr, i32 } %17

18:                                               ; preds = %14, %11
  invoke void @_ZN14InterfaceFrame25resetInterfaceTreeDisplayEv(ptr noundef align 8 dereferenceable_or_null(208) %0)
          to label %19 unwind label %16

19:                                               ; preds = %18
  call void @_ZN8QVariantD1Ev(ptr noundef nonnull align 8 dereferenceable_or_null(32) %4) #28
  call void @llvm.lifetime.end.p0(i64 32, ptr nonnull %4) #28
  ret void
}